(lp0
I1
aI0
aI1
aI0
aI1
aI0
aI10
aI11
aI10
aI11
aI10
aI9
aI8
aI18
aI17
aI18
aI17
aI18
aI17
aI18
aI17
aI18
aI19
aI18
aI19
aI20
aI19
aI18
aI28
aI27
aI28
aI27
aI26
aI27
aI26
aI25
aI26
aI27
aI28
aI27
aI28
aI27
aI28
aI38
aI37
aI36
aI37
aI36
aI37
aI36
aI35
aI36
aI35
aI34
aI35
aI34
aI44
aI45
aI46
aI45
aI44
aI45
aI44
aI54
aI55
aI54
aI55
aI54
aI53
aI54
aI64
aI63
aI62
aI63
aI64
aI63
aI62
aI61
aI62
aI72
aI73
aI72
aI73
aI72
aI73
aI72
aI82
aI81
aI80
aI81
aI82
aI83
aI84
aI85
aI84
aI85
aI86
aI85
aI86
aI85
aI86
aI87
aI88
a.