(lp0
I-1
aI0
aI-1
aI0
aI-1
aI0
aI-1
aI0
aI10
aI11
aI10
aI11
aI10
aI9
aI10
aI20
aI19
aI18
aI19
aI20
aI21
aI20
aI30
aI29
aI28
aI29
aI28
aI27
aI26
aI27
aI28
aI38
aI37
aI36
aI35
aI34
aI35
aI34
aI44
aI43
aI44
aI43
aI44
aI43
aI42
aI52
aI51
aI50
aI51
aI50
aI51
aI50
aI51
aI52
aI51
aI52
aI62
aI63
aI64
aI65
aI66
aI65
aI64
aI65
aI64
aI65
aI66
aI65
aI64
aI65
aI64
aI65
aI66
aI65
aI66
aI65
aI66
aI76
aI75
aI76
aI75
aI74
aI84
a.