(lp0
I-1
aI-2
aI-1
aI-2
aI-3
aI-2
aI-1
aI-2
aI-3
aI-4
aI-3
aI-2
aI-3
aI-4
aI-3
aI-4
aI-3
aI-2
aI-3
aI-2
aI-3
aI-2
aI-3
aI-2
aI-3
aI-2
aI-1
aI-2
aI8
aI9
aI8
aI9
aI8
aI7
aI8
aI18
aI17
aI18
aI17
aI18
aI19
aI18
aI17
aI18
aI17
aI16
aI26
aI27
aI26
aI25
aI26
aI25
aI24
aI34
aI35
aI36
aI35
aI36
aI37
aI38
aI37
aI36
aI35
aI36
aI35
aI36
aI35
aI34
aI44
aI43
aI44
aI43
aI42
aI43
aI44
aI45
aI44
aI54
aI55
aI54
aI55
aI54
aI64
aI65
aI64
aI65
aI64
aI74
aI73
aI72
aI73
aI74
aI84
a.