(lp0
I-1
aI-2
aI-3
aI-2
aI-3
aI-2
aI-1
aI-2
aI-1
aI0
aI-1
aI-2
aI8
aI7
aI6
aI7
aI8
aI9
aI8
aI9
aI8
aI18
aI17
aI18
aI19
aI18
aI28
aI29
aI28
aI29
aI28
aI38
aI39
aI38
aI37
aI38
aI48
aI47
aI46
aI45
aI46
aI45
aI44
aI54
aI53
aI54
aI53
aI54
aI53
aI54
aI55
aI54
aI55
aI54
aI55
aI56
aI57
aI56
aI55
aI56
aI57
aI58
aI57
aI58
aI59
aI60
aI59
aI58
aI59
aI60
aI61
aI62
aI61
aI62
aI72
aI73
aI72
aI71
aI72
aI82
aI81
aI82
aI81
aI82
aI81
aI82
aI92
a.