(lp0
I-1
aI0
aI-1
aI-2
aI8
aI9
aI8
aI7
aI6
aI7
aI8
aI9
aI8
aI18
aI17
aI18
aI19
aI18
aI19
aI18
aI17
aI18
aI17
aI16
aI26
aI25
aI24
aI25
aI24
aI25
aI26
aI25
aI26
aI36
aI35
aI36
aI35
aI36
aI35
aI36
aI35
aI36
aI35
aI36
aI46
aI45
aI44
aI45
aI46
aI45
aI44
aI54
aI55
aI54
aI55
aI54
aI64
aI65
aI66
aI67
aI66
aI67
aI68
aI78
aI79
aI78
aI79
aI78
aI79
aI78
aI77
aI78
aI88
aI87
aI86
aI85
aI84
aI94
a.