(lp0
I-1
aI0
aI1
aI0
aI1
aI2
aI3
aI4
aI3
aI2
aI3
aI2
aI1
aI2
aI1
aI2
aI3
aI2
aI1
aI2
aI1
aI2
aI3
aI2
aI3
aI2
aI3
aI4
aI3
aI2
aI3
aI4
aI5
aI4
aI3
aI4
aI5
aI4
aI5
aI4
aI14
aI15
aI14
aI15
aI16
aI15
aI16
aI15
aI16
aI15
aI16
aI17
aI18
aI17
aI16
aI15
aI14
aI15
aI14
aI13
aI14
aI15
aI16
aI15
aI16
aI15
aI14
aI15
aI14
aI15
aI16
aI15
aI16
aI15
aI16
aI15
aI16
aI17
aI16
aI15
aI16
aI17
aI18
aI19
aI18
aI17
aI18
aI28
aI27
aI28
aI27
aI26
aI27
aI26
aI25
aI24
aI25
aI24
aI23
aI24
aI25
aI24
aI34
aI35
aI34
aI35
aI34
aI44
aI45
aI44
aI43
aI44
aI45
aI46
aI56
aI57
aI56
aI57
aI56
aI57
aI56
aI57
aI58
aI57
aI56
aI57
aI58
aI59
aI60
aI59
aI58
a.