(lp0
I-1
aI0
aI-1
aI0
aI-1
aI0
aI1
aI2
aI1
aI2
aI3
aI2
aI1
aI2
aI1
aI2
aI3
aI4
aI3
aI4
aI3
aI2
aI3
aI4
aI3
aI4
aI3
aI2
aI3
aI2
aI1
aI2
aI3
aI4
aI3
aI4
aI5
aI4
aI5
aI4
aI5
aI4
aI5
aI4
aI3
aI4
aI3
aI4
aI5
aI4
aI3
aI4
aI5
aI4
aI5
aI6
aI5
aI6
aI7
aI6
aI5
aI6
aI7
aI8
aI7
aI6
aI7
aI6
aI5
aI6
aI7
aI6
aI5
aI4
aI5
aI6
aI5
aI6
aI16
aI15
aI16
aI15
aI14
aI13
aI14
aI13
aI14
aI15
aI14
aI15
aI14
aI15
aI16
aI15
aI14
aI15
aI14
aI13
aI14
aI15
aI16
aI15
aI16
aI15
aI16
aI17
aI18
aI17
aI16
aI17
aI18
aI19
aI20
aI21
aI20
aI19
aI20
aI21
aI20
aI21
aI22
aI21
aI22
aI21
aI20
aI21
aI20
aI19
aI18
aI19
aI18
aI19
aI18
aI19
aI20
aI19
aI20
aI21
aI20
aI19
aI18
aI19
aI20
aI19
aI20
aI21
aI20
aI19
aI20
aI19
aI20
aI19
aI20
aI21
aI20
aI19
aI20
aI19
aI20
a.