(lp0
I-1
aI-2
aI-1
aI-2
aI-1
aI0
aI1
aI0
aI1
aI2
aI1
aI2
aI1
aI0
aI1
aI2
aI1
aI0
aI-1
aI0
aI10
aI11
aI12
aI11
aI12
aI13
aI12
aI11
aI12
aI11
aI12
aI11
aI12
aI11
aI10
aI11
aI10
aI9
aI10
aI11
aI12
aI13
aI12
aI11
aI12
aI11
aI10
aI11
aI12
aI11
aI10
aI11
aI10
aI11
aI12
aI11
aI12
aI11
aI12
aI11
aI12
aI11
aI12
aI11
aI12
aI11
aI12
aI13
aI14
aI13
aI14
aI13
aI12
aI11
aI12
aI11
aI10
aI11
aI12
aI11
aI12
aI13
aI12
aI11
aI12
aI13
aI12
aI13
aI12
aI11
aI12
aI11
aI10
aI9
aI10
aI20
aI21
aI22
aI21
aI22
aI21
aI22
aI23
aI22
aI32
aI33
aI34
aI35
aI34
aI33
aI34
aI35
aI36
aI37
aI38
aI37
aI38
aI37
aI36
aI37
aI38
aI39
aI38
aI37
aI38
aI39
aI38
aI39
aI40
aI41
aI42
aI41
aI40
aI41
aI42
aI41
aI42
a.