(lp0
I1
aI2
aI1
aI0
aI1
aI0
aI1
aI2
aI1
aI2
aI1
aI2
aI3
aI2
aI1
aI2
aI1
aI2
aI1
aI0
aI1
aI2
aI3
aI2
aI1
aI2
aI1
aI0
aI1
aI2
aI3
aI2
aI1
aI2
aI1
aI0
aI1
aI2
aI1
aI2
aI3
aI2
aI3
aI2
aI3
aI2
aI1
aI0
aI-1
aI0
aI1
aI2
aI3
aI2
aI3
aI2
aI3
aI2
aI1
aI2
aI12
aI11
aI12
aI11
aI12
aI13
aI12
aI11
aI12
aI11
aI12
aI11
aI12
aI11
aI12
aI11
aI12
aI11
aI12
aI13
aI12
aI11
aI12
aI13
aI12
aI13
aI12
aI22
aI23
aI22
aI21
aI20
aI21
aI22
aI21
aI22
aI21
aI22
aI21
aI20
aI30
aI29
aI30
aI29
aI30
aI29
aI30
aI29
aI30
aI31
aI32
aI31
aI32
aI31
aI30
aI29
aI30
aI29
aI30
aI29
aI30
aI31
aI30
aI31
aI30
aI31
aI32
aI31
aI32
aI31
aI32
aI31
aI32
aI31
aI32
aI31
aI32
aI42
a.