(lp0
I-1
aI0
aI1
aI0
aI10
aI11
aI10
aI11
aI12
aI13
aI12
aI22
aI21
aI22
aI21
aI20
aI21
aI22
aI21
aI22
aI21
aI22
aI21
aI20
aI19
aI20
aI21
aI20
aI21
aI20
aI21
aI22
aI23
aI22
aI21
aI22
aI21
aI20
aI19
aI20
aI19
aI18
aI19
aI18
aI19
aI18
aI19
aI18
aI17
aI18
aI17
aI18
aI17
aI16
aI15
aI16
aI17
aI18
aI17
aI18
aI17
aI16
aI17
aI18
aI17
aI16
aI17
aI16
aI17
aI18
aI17
aI16
aI17
aI18
aI17
aI16
aI15
aI16
aI17
aI18
aI17
aI18
aI19
aI20
aI19
aI20
aI21
aI20
aI19
aI18
aI19
aI18
aI19
aI18
aI17
aI18
aI19
aI18
aI17
aI18
aI19
aI18
aI17
aI18
aI17
aI16
aI17
aI18
aI17
aI18
aI17
aI18
aI17
aI18
aI17
aI18
aI17
aI16
aI26
aI25
aI26
aI25
aI26
aI25
aI24
aI25
aI26
aI27
aI28
aI27
aI28
aI29
aI28
aI27
aI28
a.