(lp0
I-1
aI-2
aI-3
aI-2
aI-1
aI0
aI-1
aI-2
aI-3
aI-2
aI-3
aI-4
aI-3
aI-4
aI-5
aI-4
aI-5
aI-4
aI-5
aI-4
aI-5
aI-4
aI6
aI5
aI4
aI3
aI4
aI3
aI2
aI3
aI2
aI3
aI2
aI3
aI2
aI12
aI13
aI14
aI15
aI16
aI15
aI16
aI15
aI14
aI15
aI16
aI15
aI16
aI17
aI18
aI17
aI18
aI19
aI20
aI19
aI18
aI28
aI29
aI30
aI31
aI32
aI31
aI30
aI29
aI30
aI29
aI30
aI29
aI30
aI29
aI30
aI40
aI39
aI38
aI39
aI40
aI50
aI51
aI50
aI49
aI50
aI51
aI50
aI60
aI61
aI60
aI61
aI60
aI61
aI62
aI72
aI73
aI72
aI71
aI72
aI71
aI70
aI69
aI70
aI71
aI70
aI69
aI68
aI69
aI70
aI80
a.