(lp0
I1
aI0
aI1
aI0
aI1
aI0
aI1
aI2
aI1
aI2
aI1
aI2
aI12
aI11
aI10
aI11
aI12
aI11
aI12
aI13
aI12
aI13
aI12
aI11
aI12
aI22
aI23
aI22
aI23
aI22
aI23
aI22
aI23
aI22
aI21
aI22
aI32
aI33
aI32
aI33
aI32
aI33
aI32
aI31
aI32
aI33
aI34
aI44
aI43
aI44
aI43
aI44
aI43
aI44
aI43
aI44
aI45
aI46
aI45
aI46
aI45
aI44
aI45
aI44
aI43
aI44
aI43
aI44
aI45
aI46
aI47
aI46
aI47
aI46
aI47
aI46
aI47
aI46
aI45
aI44
aI43
aI44
aI43
aI44
aI45
aI46
aI56
aI55
aI56
aI55
aI56
aI55
aI56
aI55
aI56
aI55
aI56
aI57
aI58
aI59
aI58
aI59
aI58
aI59
aI60
aI59
aI60
aI70
aI69
aI70
aI69
aI70
aI69
aI70
aI69
aI70
aI69
aI70
aI69
aI70
aI69
aI70
aI69
aI70
a.