(lp0
I1
aI2
aI3
aI2
aI3
aI2
aI3
aI2
aI1
aI2
aI1
aI2
aI3
aI2
aI3
aI2
aI3
aI2
aI3
aI2
aI1
aI2
aI1
aI0
aI1
aI0
aI1
aI0
aI-1
aI0
aI1
aI0
aI1
aI0
aI1
aI2
aI3
aI4
aI3
aI2
aI3
aI2
aI1
aI2
aI1
aI2
aI1
aI2
aI1
aI2
aI3
aI2
aI1
aI0
aI1
aI0
aI-1
aI0
aI1
aI2
aI1
aI0
aI1
aI2
aI3
aI2
aI3
aI4
aI3
aI2
aI1
aI2
aI3
aI4
aI3
aI2
aI3
aI2
aI3
aI2
aI1
aI0
aI1
aI0
aI-1
aI-2
aI-3
aI-4
aI-3
aI-4
aI-5
aI-4
aI-5
aI-4
aI-5
aI-4
aI-5
aI-4
aI-5
aI-4
aI-5
aI-4
aI-3
aI-4
aI-3
aI-4
aI-3
aI-4
aI-3
aI-2
aI-3
aI-4
aI-5
aI-6
aI-5
aI-6
aI-5
aI-4
aI-3
aI-2
aI-1
aI-2
aI-1
aI-2
aI-3
aI-2
aI-1
aI-2
aI-3
aI-4
aI-3
aI-4
aI-3
aI-4
aI-5
aI-6
aI-7
aI-8
aI-7
aI-8
aI-7
aI-8
aI-7
aI-8
aI-9
aI-10
aI-9
aI-10
aI-9
aI-10
aI-11
aI-10
aI-11
aI-10
aI-11
aI-12
aI-13
aI-14
aI-13
aI-12
a.