(lp0
I-1
aI0
aI1
aI0
aI-1
aI0
aI1
aI0
aI-1
aI-2
aI-1
aI0
aI-1
aI-2
aI-1
aI0
aI-1
aI0
aI-1
aI-2
aI-1
aI0
aI-1
aI-2
aI-1
aI0
aI-1
aI-2
aI-1
aI-2
aI-1
aI-2
aI-1
aI0
aI1
aI0
aI1
aI0
aI-1
aI0
aI1
aI0
aI-1
aI0
aI-1
aI-2
aI-3
aI-4
aI-5
aI-4
aI-5
aI-4
aI-3
aI-4
aI-5
aI-6
aI-5
aI-4
aI-5
aI-6
aI-5
aI-4
aI-5
aI-6
aI-7
aI-6
aI-7
aI-6
aI-7
aI-6
aI-7
aI-6
aI-7
aI-8
aI-7
aI-6
aI-7
aI-6
aI-7
aI-8
aI-9
aI-10
aI-9
aI-10
aI-11
aI-10
aI-11
aI-12
aI-11
aI-12
aI-11
aI-10
aI-9
aI-10
aI-9
aI-10
aI-9
aI-8
aI-7
aI-8
aI-7
aI-8
aI-9
aI-8
aI-9
aI-10
aI-11
aI-10
aI-11
aI-10
aI-11
aI-10
aI-11
aI-10
aI-9
aI-10
aI-11
aI-10
aI-9
aI-10
aI-11
aI-12
aI-11
aI-10
aI-11
aI-10
aI-11
aI-10
aI-11
aI-12
aI-13
aI-14
aI-13
aI-12
aI-13
aI-12
aI-13
aI-12
aI-13
aI-14
aI-13
aI-14
aI-13
aI-14
aI-15
aI-16
aI-17
aI-18
aI-17
aI-18
aI-17
aI-18
aI-17
aI-18
aI-17
aI-18
aI-17
aI-16
aI-17
aI-18
a.