(lp0
I-1
aI0
aI-1
aI0
aI-1
aI-2
aI-1
aI-2
aI-3
aI-2
aI-1
aI-2
aI-1
aI0
aI-1
aI0
aI1
aI2
aI3
aI2
aI1
aI0
aI1
aI2
aI3
aI2
aI3
aI4
aI3
aI4
aI5
aI6
aI7
aI8
aI7
aI8
aI9
aI8
aI9
aI10
aI9
aI8
aI9
aI10
aI9
aI8
aI9
aI10
aI9
aI8
aI9
aI10
aI11
aI10
aI9
aI10
aI11
aI10
aI11
aI12
aI13
aI12
aI13
aI14
aI13
aI14
aI13
aI12
aI11
aI12
aI13
aI14
aI13
aI12
aI11
aI12
aI13
aI12
aI13
aI14
aI15
aI16
aI15
aI16
aI15
aI14
aI15
aI14
aI13
aI14
aI13
aI14
aI15
aI14
aI15
aI14
aI13
aI12
aI13
aI14
aI15
aI14
aI15
aI16
aI17
aI16
aI15
aI14
aI15
aI14
aI13
aI14
aI13
aI12
aI13
aI12
aI11
aI12
aI13
aI12
aI13
aI12
aI11
aI12
aI13
aI12
aI11
aI10
aI11
aI10
aI11
aI10
aI11
aI10
aI9
aI10
aI9
aI10
aI9
aI8
aI9
aI10
aI9
aI8
aI7
aI6
aI7
aI8
aI7
aI8
aI7
aI6
aI5
aI6
aI7
aI6
aI5
aI6
aI7
aI6
a.