(lp0
I1
aI2
aI1
aI2
aI1
aI2
aI1
aI0
aI10
aI9
aI8
aI9
aI8
aI9
aI8
aI9
aI8
aI7
aI6
aI16
aI15
aI14
aI15
aI16
aI26
aI25
aI24
aI25
aI24
aI23
aI24
aI25
aI24
aI34
aI35
aI36
aI37
aI36
aI46
aI45
aI44
aI43
aI44
aI45
aI46
aI47
aI46
aI56
aI55
aI56
aI55
aI54
aI55
aI54
aI64
aI63
aI62
aI61
aI62
aI72
aI71
aI70
aI71
aI70
aI71
aI72
aI71
aI70
aI80
aI81
aI80
aI81
aI80
aI90
a.