(lp0
I-1
aI0
aI1
aI0
aI1
aI0
aI-1
aI0
aI-1
aI-2
aI8
aI7
aI8
aI9
aI8
aI9
aI10
aI11
aI10
aI9
aI10
aI9
aI10
aI11
aI10
aI9
aI10
aI9
aI8
aI7
aI8
aI9
aI8
aI7
aI8
aI7
aI8
aI7
aI6
aI16
aI15
aI14
aI15
aI16
aI15
aI14
aI13
aI12
aI22
aI21
aI20
aI19
aI20
aI19
aI18
aI17
aI18
aI19
aI18
aI28
aI29
aI28
aI29
aI30
aI29
aI28
aI29
aI28
aI29
aI28
aI27
aI28
aI38
aI37
aI36
aI37
aI38
aI37
aI36
aI37
aI38
aI48
aI47
aI46
aI47
aI48
aI49
aI50
aI49
aI48
aI49
aI48
aI58
aI59
aI60
aI61
aI60
aI61
aI60
aI59
aI60
aI59
aI58
aI68
aI69
aI68
aI67
aI66
aI76
a.