(lp0
I-1
aI-2
aI-1
aI-2
aI-3
aI-2
aI8
aI9
aI8
aI7
aI8
aI18
aI17
aI16
aI17
aI16
aI17
aI18
aI17
aI16
aI26
aI25
aI26
aI25
aI24
aI23
aI24
aI23
aI24
aI25
aI24
aI34
aI35
aI34
aI33
aI32
aI31
aI32
aI33
aI32
aI31
aI32
aI31
aI32
aI42
aI41
aI42
aI41
aI40
aI39
aI40
aI50
aI51
aI52
aI51
aI52
aI51
aI50
aI49
aI50
aI60
aI59
aI58
aI59
aI60
aI70
aI69
aI68
aI69
aI70
aI69
aI68
aI67
aI68
aI78
aI79
aI78
aI79
aI78
aI77
aI76
aI77
aI78
aI79
aI78
aI88
a.