(lp0
I-1
aI-2
aI-1
aI0
aI-1
aI-2
aI8
aI9
aI10
aI9
aI8
aI7
aI6
aI7
aI8
aI7
aI6
aI16
aI15
aI14
aI13
aI14
aI15
aI16
aI15
aI14
aI24
aI23
aI22
aI21
aI22
aI23
aI24
aI23
aI22
aI23
aI24
aI23
aI22
aI32
aI33
aI32
aI31
aI30
aI29
aI30
aI40
aI41
aI40
aI39
aI38
aI39
aI40
aI41
aI42
aI41
aI40
aI39
aI38
aI48
aI49
aI50
aI51
aI50
aI49
aI50
aI51
aI50
aI60
aI61
aI60
aI59
aI58
aI59
aI60
aI70
aI69
aI68
aI69
aI70
aI80
aI79
aI78
aI79
aI80
aI81
aI80
aI90
a.