(lp0
I1
aI0
aI-1
aI0
aI1
aI0
aI10
aI11
aI12
aI11
aI10
aI9
aI10
aI11
aI10
aI20
aI19
aI18
aI17
aI18
aI19
aI20
aI21
aI22
aI21
aI20
aI21
aI22
aI21
aI20
aI19
aI20
aI19
aI18
aI17
aI16
aI26
aI25
aI24
aI23
aI24
aI34
aI33
aI32
aI33
aI34
aI33
aI32
aI31
aI30
aI40
aI39
aI38
aI37
aI38
aI48
aI47
aI46
aI47
aI48
aI49
aI48
aI47
aI48
aI58
aI57
aI56
aI57
aI58
aI57
aI56
aI66
aI67
aI68
aI67
aI66
aI65
aI66
aI67
aI68
aI78
a.