(lp0
I1
aI0
aI1
aI2
aI1
aI2
aI1
aI0
aI1
aI0
aI-1
aI0
aI1
aI0
aI-1
aI0
aI1
aI0
aI-1
aI0
aI1
aI0
aI1
aI0
aI1
aI2
aI3
aI4
aI3
aI4
aI5
aI4
aI5
aI6
aI5
aI4
aI3
aI4
aI3
aI4
aI14
aI15
aI14
aI15
aI16
aI17
aI18
aI17
aI18
aI17
aI18
aI17
aI18
aI17
aI18
aI19
aI18
aI17
aI18
aI17
aI16
aI17
aI18
aI17
aI16
aI26
aI25
aI24
aI25
aI26
aI25
aI26
aI25
aI26
aI25
aI26
aI36
aI37
aI36
aI37
aI36
aI35
aI36
aI35
aI34
aI35
aI34
aI35
aI36
aI35
aI36
aI37
aI38
aI37
aI36
aI35
aI36
aI37
aI36
aI37
aI38
aI37
aI36
aI37
aI36
aI46
aI45
aI44
aI45
aI46
aI47
aI46
aI47
aI46
aI47
aI46
aI56
aI57
aI56
aI55
aI54
aI64
a.