(lp0
I-1
aI-2
aI-1
aI0
aI-1
aI-2
aI-3
aI-4
aI-5
aI-4
aI-5
aI-4
aI-5
aI-6
aI-7
aI-6
aI-7
aI-8
aI-9
aI-8
aI-7
aI-8
aI-9
aI-10
aI-9
aI-8
aI-7
aI-8
aI-9
aI-8
aI-7
aI-8
aI-9
aI-8
aI-7
aI-6
aI-7
aI-8
aI-9
aI-10
aI-9
aI-8
aI-7
aI-8
aI-9
aI-8
aI-7
aI-8
aI-9
aI-10
aI-9
aI-10
aI-11
aI-10
aI-9
aI-8
aI-9
aI-8
aI2
aI3
aI4
aI5
aI4
aI5
aI4
aI3
aI4
aI3
aI4
aI5
aI4
aI14
aI15
aI14
aI13
aI12
aI13
aI12
aI11
aI10
aI11
aI12
aI13
aI12
aI11
aI10
aI11
aI10
aI9
aI10
aI11
aI10
aI11
aI12
aI11
aI10
aI9
aI10
aI11
aI10
aI11
aI10
aI9
aI10
aI11
aI10
aI9
aI8
aI7
aI8
aI18
aI19
aI20
aI19
aI18
aI17
aI18
aI19
aI18
aI17
aI18
aI17
aI16
aI15
aI16
aI17
aI16
aI15
aI16
aI17
aI16
aI15
aI16
aI17
aI16
aI15
aI16
aI15
aI16
aI15
aI14
aI13
aI14
a.